target datalayout = "e-m:e-p270:32:32-p271:32:32-p272:64:64-i64:64-i128:128-f80:128-n8:16:32:64-S128"
target triple = "x86_64-pc-linux-gnu"

%struct._lv_arc_t = type { %struct._lv_obj_t, i32, float, float, float, float, i32, i32, i32, i8, i32, i32, float, i16 }
%struct._lv_obj_t = type { ptr, ptr, ptr, ptr, ptr, %struct.lv_area_t, i32, i16, i16 }
%struct.lv_area_t = type { i32, i32, i32, i32 }

; Function Attrs: nounwind uwtable
define internal zeroext i1 @lv_arc_angle_within_bg_bounds(ptr noundef %0, float noundef %1, float noundef %2) #0 {
  %4 = alloca i1, align 1
  %5 = alloca ptr, align 8
  %6 = alloca float, align 4
  %7 = alloca float, align 4
  %8 = alloca ptr, align 8
  %9 = alloca float, align 4
  %10 = alloca i32, align 4
  store ptr %0, ptr %5, align 8, !tbaa !8
  store float %1, ptr %6, align 4, !tbaa !39
  store float %2, ptr %7, align 4, !tbaa !39
  br label %11

11:                                               ; preds = %3
  %12 = load ptr, ptr %5, align 8, !tbaa !8
  %13 = icmp ne ptr %12, null
  br i1 %13, label %18, label %14

14:                                               ; preds = %11
  br label %15

15:                                               ; preds = %14
  br label %16

16:                                               ; preds = %15
  br label %17

17:                                               ; preds = %16, %17
  br label %17

18:                                               ; preds = %11
  br label %19

19:                                               ; preds = %18
  call void @llvm.lifetime.start.p0(i64 8, ptr %8) #5
  %20 = load ptr, ptr %5, align 8, !tbaa !8
  store ptr %20, ptr %8, align 8, !tbaa !10
  call void @llvm.lifetime.start.p0(i64 4, ptr %9) #5
  %21 = load ptr, ptr %8, align 8, !tbaa !10
  %22 = getelementptr inbounds nuw %struct._lv_arc_t, ptr %21, i32 0, i32 5
  %23 = load float, ptr %22, align 8, !tbaa !22
  %24 = load ptr, ptr %8, align 8, !tbaa !10
  %25 = getelementptr inbounds nuw %struct._lv_arc_t, ptr %24, i32 0, i32 4
  %26 = load float, ptr %25, align 4, !tbaa !21
  %27 = fsub float %23, %26
  store float %27, ptr %9, align 4, !tbaa !39
  br label %28

28:                                               ; preds = %31, %19
  %29 = load float, ptr %9, align 4, !tbaa !39
  %30 = fcmp olt float %29, 0.000000e+00
  br i1 %30, label %31, label %34

31:                                               ; preds = %28
  %32 = load float, ptr %9, align 4, !tbaa !39
  %33 = fadd float %32, 3.600000e+02
  store float %33, ptr %9, align 4, !tbaa !39
  br label %28, !llvm.loop !72

34:                                               ; preds = %28
  br label %35

35:                                               ; preds = %38, %34
  %36 = load float, ptr %9, align 4, !tbaa !39
  %37 = fcmp oge float %36, 3.600000e+02
  br i1 %37, label %38, label %41

38:                                               ; preds = %35
  %39 = load float, ptr %9, align 4, !tbaa !39
  %40 = fsub float %39, 3.600000e+02
  store float %40, ptr %9, align 4, !tbaa !39
  br label %35, !llvm.loop !73

41:                                               ; preds = %35
  %42 = load float, ptr %6, align 4, !tbaa !39
  %43 = load float, ptr %9, align 4, !tbaa !39
  %44 = fcmp ole float %42, %43
  br i1 %44, label %45, label %68

45:                                               ; preds = %41
  %46 = load float, ptr %6, align 4, !tbaa !39
  %47 = load float, ptr %9, align 4, !tbaa !39
  %48 = fdiv float %47, 2.000000e+00
  %49 = fcmp olt float %46, %48
  br i1 %49, label %50, label %56

50:                                               ; preds = %45
  %51 = load ptr, ptr %8, align 8, !tbaa !10
  %52 = getelementptr inbounds nuw %struct._lv_arc_t, ptr %51, i32 0, i32 9
  %53 = load i8, ptr %52, align 8
  %54 = and i8 %53, -9
  %55 = or i8 %54, 8
  store i8 %55, ptr %52, align 8
  br label %62

56:                                               ; preds = %45
  %57 = load ptr, ptr %8, align 8, !tbaa !10
  %58 = getelementptr inbounds nuw %struct._lv_arc_t, ptr %57, i32 0, i32 9
  %59 = load i8, ptr %58, align 8
  %60 = and i8 %59, -9
  %61 = or i8 %60, 0
  store i8 %61, ptr %58, align 8
  br label %62

62:                                               ; preds = %56, %50
  %63 = load ptr, ptr %8, align 8, !tbaa !10
  %64 = getelementptr inbounds nuw %struct._lv_arc_t, ptr %63, i32 0, i32 9
  %65 = load i8, ptr %64, align 8
  %66 = and i8 %65, -17
  %67 = or i8 %66, 16
  store i8 %67, ptr %64, align 8
  store i1 true, ptr %4, align 1
  store i32 1, ptr %10, align 4
  br label %118

68:                                               ; preds = %41
  %69 = load float, ptr %9, align 4, !tbaa !39
  %70 = fsub float 3.600000e+02, %69
  %71 = load float, ptr %7, align 4, !tbaa !39
  %72 = fcmp ole float %70, %71
  br i1 %72, label %73, label %84

73:                                               ; preds = %68
  %74 = load ptr, ptr %8, align 8, !tbaa !10
  %75 = getelementptr inbounds nuw %struct._lv_arc_t, ptr %74, i32 0, i32 9
  %76 = load i8, ptr %75, align 8
  %77 = and i8 %76, -9
  %78 = or i8 %77, 8
  store i8 %78, ptr %75, align 8
  %79 = load ptr, ptr %8, align 8, !tbaa !10
  %80 = getelementptr inbounds nuw %struct._lv_arc_t, ptr %79, i32 0, i32 9
  %81 = load i8, ptr %80, align 8
  %82 = and i8 %81, -17
  %83 = or i8 %82, 16
  store i8 %83, ptr %80, align 8
  store i1 true, ptr %4, align 1
  store i32 1, ptr %10, align 4
  br label %118

84:                                               ; preds = %68
  %85 = load float, ptr %6, align 4, !tbaa !39
  %86 = fsub float 3.600000e+02, %85
  %87 = load float, ptr %7, align 4, !tbaa !39
  %88 = fcmp ole float %86, %87
  br i1 %88, label %89, label %100

89:                                               ; preds = %84
  %90 = load ptr, ptr %8, align 8, !tbaa !10
  %91 = getelementptr inbounds nuw %struct._lv_arc_t, ptr %90, i32 0, i32 9
  %92 = load i8, ptr %91, align 8
  %93 = and i8 %92, -9
  %94 = or i8 %93, 8
  store i8 %94, ptr %91, align 8
  %95 = load ptr, ptr %8, align 8, !tbaa !10
  %96 = getelementptr inbounds nuw %struct._lv_arc_t, ptr %95, i32 0, i32 9
  %97 = load i8, ptr %96, align 8
  %98 = and i8 %97, -17
  %99 = or i8 %98, 0
  store i8 %99, ptr %96, align 8
  store i1 true, ptr %4, align 1
  store i32 1, ptr %10, align 4
  br label %118

100:                                              ; preds = %84
  %101 = load float, ptr %6, align 4, !tbaa !39
  %102 = load float, ptr %9, align 4, !tbaa !39
  %103 = load float, ptr %7, align 4, !tbaa !39
  %104 = fadd float %102, %103
  %105 = fcmp ole float %101, %104
  br i1 %105, label %106, label %117

106:                                              ; preds = %100
  %107 = load ptr, ptr %8, align 8, !tbaa !10
  %108 = getelementptr inbounds nuw %struct._lv_arc_t, ptr %107, i32 0, i32 9
  %109 = load i8, ptr %108, align 8
  %110 = and i8 %109, -9
  %111 = or i8 %110, 0
  store i8 %111, ptr %108, align 8
  %112 = load ptr, ptr %8, align 8, !tbaa !10
  %113 = getelementptr inbounds nuw %struct._lv_arc_t, ptr %112, i32 0, i32 9
  %114 = load i8, ptr %113, align 8
  %115 = and i8 %114, -17
  %116 = or i8 %115, 0
  store i8 %116, ptr %113, align 8
  store i1 true, ptr %4, align 1
  store i32 1, ptr %10, align 4
  br label %118

117:                                              ; preds = %100
  store i1 false, ptr %4, align 1
  store i32 1, ptr %10, align 4
  br label %118

118:                                              ; preds = %117, %106, %89, %73, %62
  call void @llvm.lifetime.end.p0(i64 4, ptr %9) #5
  call void @llvm.lifetime.end.p0(i64 8, ptr %8) #5
  %119 = load i1, ptr %4, align 1
  ret i1 %119
}