; Function Attrs: nofree norecurse nosync nounwind memory(argmem: readwrite) uwtable
define internal fastcc noundef zeroext i1 @lv_arc_angle_within_bg_bounds(ptr noundef captures(address_is_null) %0, float noundef %1, float noundef %2) unnamed_addr #5 {
  %.not = icmp eq ptr %0, null
  br i1 %.not, label %.preheader, label %4

.preheader:                                       ; preds = %3, %.preheader
  br label %.preheader

4:                                                ; preds = %3
  %5 = getelementptr inbounds nuw i8, ptr %0, i64 80
  %6 = load float, ptr %5, align 8, !tbaa !18
  %7 = getelementptr inbounds nuw i8, ptr %0, i64 76
  %8 = load float, ptr %7, align 4, !tbaa !17
  %9 = fsub float %6, %8
  %10 = fcmp olt float %9, 0.000000e+00
  br i1 %10, label %.lr.ph, label %.preheader34

.preheader34:                                     ; preds = %.lr.ph, %4
  %.0.lcssa = phi float [ %9, %4 ], [ %12, %.lr.ph ]
  %11 = fcmp ult float %.0.lcssa, 3.600000e+02
  br i1 %11, label %._crit_edge, label %.lr.ph37

.lr.ph:                                           ; preds = %4, %.lr.ph
  %.035 = phi float [ %12, %.lr.ph ], [ %9, %4 ]
  %12 = fadd float %.035, 3.600000e+02
  %13 = fcmp olt float %12, 0.000000e+00
  br i1 %13, label %.lr.ph, label %.preheader34, !llvm.loop !63

.lr.ph37:                                         ; preds = %.preheader34, %.lr.ph37
  %.136 = phi float [ %14, %.lr.ph37 ], [ %.0.lcssa, %.preheader34 ]
  %14 = fadd float %.136, -3.600000e+02
  %15 = fcmp ult float %14, 3.600000e+02
  br i1 %15, label %._crit_edge, label %.lr.ph37, !llvm.loop !64

._crit_edge:                                      ; preds = %.lr.ph37, %.preheader34
  %.1.lcssa = phi float [ %.0.lcssa, %.preheader34 ], [ %14, %.lr.ph37 ]
  %16 = fcmp ugt float %1, %.1.lcssa
  br i1 %16, label %26, label %17

17:                                               ; preds = %._crit_edge
  %18 = fmul float %.1.lcssa, 5.000000e-01
  %19 = fcmp olt float %1, %18
  %20 = getelementptr inbounds nuw i8, ptr %0, i64 96
  %21 = load i8, ptr %20, align 8
  %22 = and i8 %21, -25
  %masksel = select i1 %19, i8 8, i8 0
  %23 = or disjoint i8 %22, %masksel
  %24 = getelementptr inbounds nuw i8, ptr %0, i64 96
  %25 = or disjoint i8 %23, 16
  store i8 %25, ptr %24, align 8
  br label %48

26:                                               ; preds = %._crit_edge
  %27 = fsub float 3.600000e+02, %.1.lcssa
  %28 = fcmp ugt float %27, %2
  br i1 %28, label %33, label %29

29:                                               ; preds = %26
  %30 = getelementptr inbounds nuw i8, ptr %0, i64 96
  %31 = load i8, ptr %30, align 8
  %32 = or i8 %31, 24
  store i8 %32, ptr %30, align 8
  br label %48

33:                                               ; preds = %26
  %34 = fsub float 3.600000e+02, %1
  %35 = fcmp ugt float %34, %2
  br i1 %35, label %41, label %36

36:                                               ; preds = %33
  %37 = getelementptr inbounds nuw i8, ptr %0, i64 96
  %38 = load i8, ptr %37, align 8
  %39 = and i8 %38, -25
  %40 = or disjoint i8 %39, 8
  store i8 %40, ptr %37, align 8
  br label %48

41:                                               ; preds = %33
  %42 = fadd float %2, %.1.lcssa
  %43 = fcmp ugt float %1, %42
  br i1 %43, label %48, label %44

44:                                               ; preds = %41
  %45 = getelementptr inbounds nuw i8, ptr %0, i64 96
  %46 = load i8, ptr %45, align 8
  %47 = and i8 %46, -25
  store i8 %47, ptr %45, align 8
  br label %48

48:                                               ; preds = %41, %44, %36, %29, %17
  %.029 = phi i1 [ true, %17 ], [ true, %29 ], [ true, %36 ], [ true, %44 ], [ false, %41 ]
  ret i1 %.029
}